target datalayout = "e-m:e-p270:32:32-p271:32:32-p272:64:64-i64:64-i128:128-f80:128-n8:16:32:64-S128"
target triple = "x86_64-pc-linux-gnu"

%"class.cv::aruco::ArucoDetector" = type { %"class.cv::Algorithm", %"struct.cv::Ptr" }
%"class.cv::Algorithm" = type { ptr }
%"struct.cv::Ptr" = type { %"class.std::shared_ptr" }
%"class.std::shared_ptr" = type { %"class.std::__shared_ptr" }
%"class.std::__shared_ptr" = type { ptr, %"class.std::__shared_count" }
%"class.std::__shared_count" = type { ptr }
%"struct.cv::aruco::RefineParameters" = type <{ float, float, i8, [3 x i8] }>
%"class.std::__shared_ptr.2" = type { ptr, %"class.std::__shared_count" }
%"class.std::__shared_ptr.6" = type { ptr, %"class.std::__shared_count" }

; Function Attrs: mustprogress nounwind uwtable
define linkonce_odr hidden noundef ptr @_ZNKSt12__shared_ptrIN2cv5aruco18DetectorParametersELN9__gnu_cxx12_Lock_policyE2EE3getEv(ptr noundef nonnull align 8 dereferenceable(16) %0) #6 comdat align 2 {
  %2 = alloca ptr, align 8
  store ptr %0, ptr %2, align 8, !tbaa !156
  %3 = load ptr, ptr %2, align 8
  %4 = getelementptr inbounds nuw %"class.std::__shared_ptr.6", ptr %3, i32 0, i32 0
  %5 = load ptr, ptr %4, align 8, !tbaa !158
  ret ptr %5
}

; Function Attrs: mustprogress nounwind uwtable
define linkonce_odr hidden noundef ptr @_ZNKSt12__shared_ptrIN2cv5aruco10DictionaryELN9__gnu_cxx12_Lock_policyE2EE3getEv(ptr noundef nonnull align 8 dereferenceable(16) %0) #6 comdat align 2 {
  %2 = alloca ptr, align 8
  store ptr %0, ptr %2, align 8, !tbaa !151
  %3 = load ptr, ptr %2, align 8
  %4 = getelementptr inbounds nuw %"class.std::__shared_ptr.2", ptr %3, i32 0, i32 0
  %5 = load ptr, ptr %4, align 8, !tbaa !153
  ret ptr %5
}

; Function Attrs: mustprogress nounwind uwtable
define linkonce_odr hidden noundef nonnull align 8 dereferenceable(188) ptr @_ZNK2cv3PtrINS_5aruco18DetectorParametersEEdeEv(ptr noundef nonnull align 8 dereferenceable(16) %0) #6 comdat align 2 {
  %2 = alloca ptr, align 8
  store ptr %0, ptr %2, align 8, !tbaa !12
  %3 = load ptr, ptr %2, align 8
  %4 = call noundef ptr @_ZNKSt12__shared_ptrIN2cv5aruco18DetectorParametersELN9__gnu_cxx12_Lock_policyE2EE3getEv(ptr noundef nonnull align 8 dereferenceable(16) %3) #3
  ret ptr %4
}

; Function Attrs: mustprogress nounwind uwtable
define linkonce_odr hidden noundef nonnull align 8 dereferenceable(104) ptr @_ZNK2cv3PtrINS_5aruco10DictionaryEEdeEv(ptr noundef nonnull align 8 dereferenceable(16) %0) #6 comdat align 2 {
  %2 = alloca ptr, align 8
  store ptr %0, ptr %2, align 8, !tbaa !8
  %3 = load ptr, ptr %2, align 8
  %4 = call noundef ptr @_ZNKSt12__shared_ptrIN2cv5aruco10DictionaryELN9__gnu_cxx12_Lock_policyE2EE3getEv(ptr noundef nonnull align 8 dereferenceable(16) %3) #3
  ret ptr %4
}

; Function Attrs: mustprogress uwtable
define void @_ZN2cv5aruco13detectMarkersERKNS_11_InputArrayERKNS_3PtrINS0_10DictionaryEEERKNS_12_OutputArrayESB_RKNS4_INS0_18DetectorParametersEEESB_(ptr noundef nonnull align 8 dereferenceable(24) %0, ptr noundef nonnull align 8 dereferenceable(16) %1, ptr noundef nonnull align 8 dereferenceable(24) %2, ptr noundef nonnull align 8 dereferenceable(24) %3, ptr noundef nonnull align 8 dereferenceable(16) %4, ptr noundef nonnull align 8 dereferenceable(24) %5) #4 personality ptr @__gxx_personality_v0 {
  %7 = alloca ptr, align 8
  %8 = alloca ptr, align 8
  %9 = alloca ptr, align 8
  %10 = alloca ptr, align 8
  %11 = alloca ptr, align 8
  %12 = alloca ptr, align 8
  %13 = alloca %"class.cv::aruco::ArucoDetector", align 8
  %14 = alloca %"struct.cv::aruco::RefineParameters", align 4
  %15 = alloca ptr, align 8
  %16 = alloca i32, align 4
  store ptr %0, ptr %7, align 8, !tbaa !3
  store ptr %1, ptr %8, align 8, !tbaa !8
  store ptr %2, ptr %9, align 8, !tbaa !10
  store ptr %3, ptr %10, align 8, !tbaa !10
  store ptr %4, ptr %11, align 8, !tbaa !12
  store ptr %5, ptr %12, align 8, !tbaa !10
  call void @llvm.lifetime.start.p0(i64 24, ptr %13) #3
  %17 = load ptr, ptr %8, align 8, !tbaa !8
  %18 = call noundef nonnull align 8 dereferenceable(104) ptr @_ZNK2cv3PtrINS_5aruco10DictionaryEEdeEv(ptr noundef nonnull align 8 dereferenceable(16) %17) #3
  %19 = load ptr, ptr %11, align 8, !tbaa !12
  %20 = call noundef nonnull align 8 dereferenceable(188) ptr @_ZNK2cv3PtrINS_5aruco18DetectorParametersEEdeEv(ptr noundef nonnull align 8 dereferenceable(16) %19) #3
  call void @llvm.lifetime.start.p0(i64 12, ptr %14) #3
  call void @_ZN2cv5aruco16RefineParametersC1Effb(ptr noundef nonnull align 4 dereferenceable(9) %14, float noundef 1.000000e+01, float noundef 3.000000e+00, i1 noundef zeroext true)
  call void @_ZN2cv5aruco13ArucoDetectorC1ERKNS0_10DictionaryERKNS0_18DetectorParametersERKNS0_16RefineParametersE(ptr noundef nonnull align 8 dereferenceable(24) %13, ptr noundef nonnull align 8 dereferenceable(104) %18, ptr noundef nonnull align 8 dereferenceable(188) %20, ptr noundef nonnull align 4 dereferenceable(9) %14)
  call void @llvm.lifetime.end.p0(i64 12, ptr %14) #3
  %21 = load ptr, ptr %7, align 8, !tbaa !3
  %22 = load ptr, ptr %9, align 8, !tbaa !10
  %23 = load ptr, ptr %10, align 8, !tbaa !10
  %24 = load ptr, ptr %12, align 8, !tbaa !10
  invoke void @_ZNK2cv5aruco13ArucoDetector13detectMarkersERKNS_11_InputArrayERKNS_12_OutputArrayES7_S7_(ptr noundef nonnull align 8 dereferenceable(24) %13, ptr noundef nonnull align 8 dereferenceable(24) %21, ptr noundef nonnull align 8 dereferenceable(24) %22, ptr noundef nonnull align 8 dereferenceable(24) %23, ptr noundef nonnull align 8 dereferenceable(24) %24)
          to label %25 unwind label %26

25:                                               ; preds = %6
  call void @_ZN2cv5aruco13ArucoDetectorD2Ev(ptr noundef nonnull align 8 dereferenceable(24) %13) #3
  call void @llvm.lifetime.end.p0(i64 24, ptr %13) #3
  ret void

26:                                               ; preds = %6
  %27 = landingpad { ptr, i32 }
          cleanup
  %28 = extractvalue { ptr, i32 } %27, 0
  store ptr %28, ptr %15, align 8
  %29 = extractvalue { ptr, i32 } %27, 1
  store i32 %29, ptr %16, align 4
  call void @_ZN2cv5aruco13ArucoDetectorD2Ev(ptr noundef nonnull align 8 dereferenceable(24) %13) #3
  call void @llvm.lifetime.end.p0(i64 24, ptr %13) #3
  br label %30

30:                                               ; preds = %26
  %31 = load ptr, ptr %15, align 8
  %32 = load i32, ptr %16, align 4
  %33 = insertvalue { ptr, i32 } poison, ptr %31, 0
  %34 = insertvalue { ptr, i32 } %33, i32 %32, 1
  resume { ptr, i32 } %34
}