; Function Attrs: mustprogress uwtable
define void @_ZN2cv5aruco13detectMarkersERKNS_11_InputArrayERKNS_3PtrINS0_10DictionaryEEERKNS_12_OutputArrayESB_RKNS4_INS0_18DetectorParametersEEESB_(ptr noundef nonnull align 8 dereferenceable(24) %0, ptr noundef nonnull readonly align 8 captures(none) dereferenceable(16) %1, ptr noundef nonnull align 8 dereferenceable(24) %2, ptr noundef nonnull align 8 dereferenceable(24) %3, ptr noundef nonnull readonly align 8 captures(none) dereferenceable(16) %4, ptr noundef nonnull align 8 dereferenceable(24) %5) local_unnamed_addr #3 personality ptr @__gxx_personality_v0 {
  %7 = alloca %"class.cv::aruco::ArucoDetector", align 8
  %8 = alloca %"struct.cv::aruco::RefineParameters", align 4
  call void @llvm.lifetime.start.p0(i64 24, ptr nonnull %7) #20
  %9 = load ptr, ptr %1, align 8, !tbaa !3
  %10 = load ptr, ptr %4, align 8, !tbaa !11
  call void @llvm.lifetime.start.p0(i64 12, ptr nonnull %8) #20
  call void @_ZN2cv5aruco16RefineParametersC1Effb(ptr noundef nonnull align 4 dereferenceable(9) %8, float noundef 1.000000e+01, float noundef 3.000000e+00, i1 noundef zeroext true)
  call void @_ZN2cv5aruco13ArucoDetectorC1ERKNS0_10DictionaryERKNS0_18DetectorParametersERKNS0_16RefineParametersE(ptr noundef nonnull align 8 dereferenceable(24) %7, ptr noundef nonnull align 8 dereferenceable(104) %9, ptr noundef nonnull align 8 dereferenceable(188) %10, ptr noundef nonnull align 4 dereferenceable(9) %8)
  call void @llvm.lifetime.end.p0(i64 12, ptr nonnull %8) #20
  invoke void @_ZNK2cv5aruco13ArucoDetector13detectMarkersERKNS_11_InputArrayERKNS_12_OutputArrayES7_S7_(ptr noundef nonnull align 8 dereferenceable(24) %7, ptr noundef nonnull align 8 dereferenceable(24) %0, ptr noundef nonnull align 8 dereferenceable(24) %2, ptr noundef nonnull align 8 dereferenceable(24) %3, ptr noundef nonnull align 8 dereferenceable(24) %5)
          to label %11 unwind label %35

11:                                               ; preds = %6
  store ptr getelementptr inbounds nuw inrange(-16, 64) (i8, ptr @_ZTVN2cv5aruco13ArucoDetectorE, i64 16), ptr %7, align 8, !tbaa !14
  %12 = getelementptr inbounds nuw i8, ptr %7, i64 16
  %13 = load ptr, ptr %12, align 8, !tbaa !16
  %.not.i.i.i = icmp eq ptr %13, null
  br i1 %.not.i.i.i, label %_ZN2cv5aruco13ArucoDetectorD2Ev.exit, label %14

14:                                               ; preds = %11
  %15 = getelementptr inbounds nuw i8, ptr %13, i64 8
  %16 = load atomic i64, ptr %15 acquire, align 8
  %17 = icmp eq i64 %16, 4294967297
  %18 = trunc i64 %16 to i32
  br i1 %17, label %19, label %27

19:                                               ; preds = %14
  store i32 0, ptr %15, align 8, !tbaa !17
  %20 = getelementptr inbounds nuw i8, ptr %13, i64 12
  store i32 0, ptr %20, align 4, !tbaa !20
  %21 = load ptr, ptr %13, align 8, !tbaa !14
  %22 = getelementptr inbounds nuw i8, ptr %21, i64 16
  %23 = load ptr, ptr %22, align 8
  call void %23(ptr noundef nonnull align 8 dereferenceable(16) %13) #20
  %24 = load ptr, ptr %13, align 8, !tbaa !14
  %25 = getelementptr inbounds nuw i8, ptr %24, i64 24
  %26 = load ptr, ptr %25, align 8
  call void %26(ptr noundef nonnull align 8 dereferenceable(16) %13) #20
  br label %_ZN2cv5aruco13ArucoDetectorD2Ev.exit

27:                                               ; preds = %14
  %28 = load i8, ptr @__libc_single_threaded, align 1, !tbaa !21
  %.not.i.i.i.i = icmp eq i8 %28, 0
  br i1 %.not.i.i.i.i, label %31, label %29

29:                                               ; preds = %27
  %30 = add nsw i32 %18, -1
  store i32 %30, ptr %15, align 4, !tbaa !22
  br label %_ZN9__gnu_cxx27__exchange_and_add_dispatchEPii.exit.i.i.i.i

31:                                               ; preds = %27
  %32 = atomicrmw volatile add ptr %15, i32 -1 acq_rel, align 4
  br label %_ZN9__gnu_cxx27__exchange_and_add_dispatchEPii.exit.i.i.i.i

_ZN9__gnu_cxx27__exchange_and_add_dispatchEPii.exit.i.i.i.i: ; preds = %31, %29
  %.0.i.i.i.i.i = phi i32 [ %18, %29 ], [ %32, %31 ]
  %33 = icmp eq i32 %.0.i.i.i.i.i, 1
  br i1 %33, label %34, label %_ZN2cv5aruco13ArucoDetectorD2Ev.exit, !prof !23

34:                                               ; preds = %_ZN9__gnu_cxx27__exchange_and_add_dispatchEPii.exit.i.i.i.i
  call void @_ZNSt16_Sp_counted_baseILN9__gnu_cxx12_Lock_policyE2EE24_M_release_last_use_coldEv(ptr noundef nonnull align 8 dereferenceable(16) %13) #20
  br label %_ZN2cv5aruco13ArucoDetectorD2Ev.exit

_ZN2cv5aruco13ArucoDetectorD2Ev.exit:             ; preds = %11, %19, %_ZN9__gnu_cxx27__exchange_and_add_dispatchEPii.exit.i.i.i.i, %34
  call void @_ZN2cv9AlgorithmD2Ev(ptr noundef nonnull align 8 dereferenceable(24) %7) #20
  call void @llvm.lifetime.end.p0(i64 24, ptr nonnull %7) #20
  ret void

35:                                               ; preds = %6
  %36 = landingpad { ptr, i32 }
          cleanup
  call void @_ZN2cv5aruco13ArucoDetectorD2Ev(ptr noundef nonnull align 8 dereferenceable(24) %7) #20
  call void @llvm.lifetime.end.p0(i64 24, ptr nonnull %7) #20
  resume { ptr, i32 } %36
}